target datalayout = "e-m:e-p270:32:32-p271:32:32-p272:64:64-i64:64-i128:128-f80:128-n8:16:32:64-S128"
target triple = "x86_64-pc-linux-gnu"

%struct.AVFilterContext = type { ptr, ptr, ptr, ptr, ptr, i32, ptr, ptr, i32, ptr, ptr, i32, i32, ptr, ptr, ptr, ptr, i32, ptr, i32, i32 }
%struct.FieldMatchContext = type { ptr, ptr, ptr, ptr, ptr, ptr, ptr, [2 x i32], [2 x i32], [2 x i32], i32, i32, i64, i64, i32, i32, i32, i32, i32, i32, i32, i64, double, i32, i32, i32, i32, i32, i32, i32, [4 x ptr], [4 x i32], [4 x ptr], [4 x i32], ptr, i32, i32, ptr }
%struct.AVFilterFormatsConfig = type { ptr, ptr, ptr, ptr, ptr }

@query_formats.pix_fmts = internal constant [6 x i32] [i32 5, i32 4, i32 0, i32 7, i32 6, i32 -1], align 16

; Function Attrs: nounwind uwtable
define internal i32 @query_formats(ptr noundef %0, ptr noundef %1, ptr noundef %2) #1 {
  %4 = alloca i32, align 4
  %5 = alloca ptr, align 8
  %6 = alloca ptr, align 8
  %7 = alloca ptr, align 8
  %8 = alloca ptr, align 8
  %9 = alloca i32, align 4
  %10 = alloca ptr, align 8
  %11 = alloca i32, align 4
  store ptr %0, ptr %5, align 8, !tbaa !4
  store ptr %1, ptr %6, align 8, !tbaa !43
  store ptr %2, ptr %7, align 8, !tbaa !43
  call void @llvm.lifetime.start.p0(i64 8, ptr %8) #10
  %12 = load ptr, ptr %5, align 8, !tbaa !4
  %13 = getelementptr inbounds nuw %struct.AVFilterContext, ptr %12, i32 0, i32 9
  %14 = load ptr, ptr %13, align 8, !tbaa !9
  store ptr %14, ptr %8, align 8, !tbaa !22
  call void @llvm.lifetime.start.p0(i64 4, ptr %9) #10
  call void @llvm.lifetime.start.p0(i64 8, ptr %10) #10
  %15 = call ptr @ff_make_format_list(ptr noundef @query_formats.pix_fmts)
  store ptr %15, ptr %10, align 8, !tbaa !45
  %16 = load ptr, ptr %10, align 8, !tbaa !45
  %17 = icmp ne ptr %16, null
  br i1 %17, label %19, label %18

18:                                               ; preds = %3
  store i32 -12, ptr %4, align 4
  store i32 1, ptr %11, align 4
  br label %66

19:                                               ; preds = %3
  %20 = load ptr, ptr %8, align 8, !tbaa !22
  %21 = getelementptr inbounds nuw %struct.FieldMatchContext, ptr %20, i32 0, i32 15
  %22 = load i32, ptr %21, align 4, !tbaa !25
  %23 = icmp ne i32 %22, 0
  br i1 %23, label %30, label %24

24:                                               ; preds = %19
  %25 = load ptr, ptr %5, align 8, !tbaa !4
  %26 = load ptr, ptr %6, align 8, !tbaa !43
  %27 = load ptr, ptr %7, align 8, !tbaa !43
  %28 = load ptr, ptr %10, align 8, !tbaa !45
  %29 = call i32 @ff_set_common_formats2(ptr noundef %25, ptr noundef %26, ptr noundef %27, ptr noundef %28)
  store i32 %29, ptr %4, align 4
  store i32 1, ptr %11, align 4
  br label %66

30:                                               ; preds = %19
  %31 = load ptr, ptr %10, align 8, !tbaa !45
  %32 = load ptr, ptr %6, align 8, !tbaa !43
  %33 = getelementptr inbounds ptr, ptr %32, i64 0
  %34 = load ptr, ptr %33, align 8, !tbaa !47
  %35 = getelementptr inbounds nuw %struct.AVFilterFormatsConfig, ptr %34, i32 0, i32 0
  %36 = call i32 @ff_formats_ref(ptr noundef %31, ptr noundef %35)
  store i32 %36, ptr %9, align 4, !tbaa !24
  %37 = icmp slt i32 %36, 0
  br i1 %37, label %38, label %40

38:                                               ; preds = %30
  %39 = load i32, ptr %9, align 4, !tbaa !24
  store i32 %39, ptr %4, align 4
  store i32 1, ptr %11, align 4
  br label %66

40:                                               ; preds = %30
  %41 = call ptr @ff_make_format_list(ptr noundef @query_formats.unproc_pix_fmts)
  store ptr %41, ptr %10, align 8, !tbaa !45
  %42 = load ptr, ptr %10, align 8, !tbaa !45
  %43 = icmp ne ptr %42, null
  br i1 %43, label %45, label %44

44:                                               ; preds = %40
  store i32 -12, ptr %4, align 4
  store i32 1, ptr %11, align 4
  br label %66

45:                                               ; preds = %40
  %46 = load ptr, ptr %10, align 8, !tbaa !45
  %47 = load ptr, ptr %7, align 8, !tbaa !43
  %48 = getelementptr inbounds ptr, ptr %47, i64 0
  %49 = load ptr, ptr %48, align 8, !tbaa !47
  %50 = getelementptr inbounds nuw %struct.AVFilterFormatsConfig, ptr %49, i32 0, i32 0
  %51 = call i32 @ff_formats_ref(ptr noundef %46, ptr noundef %50)
  store i32 %51, ptr %9, align 4, !tbaa !24
  %52 = icmp slt i32 %51, 0
  br i1 %52, label %53, label %55

53:                                               ; preds = %45
  %54 = load i32, ptr %9, align 4, !tbaa !24
  store i32 %54, ptr %4, align 4
  store i32 1, ptr %11, align 4
  br label %66

55:                                               ; preds = %45
  %56 = load ptr, ptr %10, align 8, !tbaa !45
  %57 = load ptr, ptr %6, align 8, !tbaa !43
  %58 = getelementptr inbounds ptr, ptr %57, i64 1
  %59 = load ptr, ptr %58, align 8, !tbaa !47
  %60 = getelementptr inbounds nuw %struct.AVFilterFormatsConfig, ptr %59, i32 0, i32 0
  %61 = call i32 @ff_formats_ref(ptr noundef %56, ptr noundef %60)
  store i32 %61, ptr %9, align 4, !tbaa !24
  %62 = icmp slt i32 %61, 0
  br i1 %62, label %63, label %65

63:                                               ; preds = %55
  %64 = load i32, ptr %9, align 4, !tbaa !24
  store i32 %64, ptr %4, align 4
  store i32 1, ptr %11, align 4
  br label %66

65:                                               ; preds = %55
  store i32 0, ptr %4, align 4
  store i32 1, ptr %11, align 4
  br label %66

66:                                               ; preds = %65, %63, %53, %44, %38, %24, %18
  call void @llvm.lifetime.end.p0(i64 8, ptr %10) #10
  call void @llvm.lifetime.end.p0(i64 4, ptr %9) #10
  call void @llvm.lifetime.end.p0(i64 8, ptr %8) #10
  %67 = load i32, ptr %4, align 4
  ret i32 %67
}