; Function Attrs: nounwind uwtable
define internal i32 @query_formats(ptr noundef %0, ptr noundef %1, ptr noundef %2) #1 {
  %4 = getelementptr inbounds nuw i8, ptr %0, i64 72
  %5 = load ptr, ptr %4, align 8, !tbaa !4
  %6 = tail call ptr @ff_make_format_list(ptr noundef nonnull @query_formats.pix_fmts) #10
  %.not = icmp eq ptr %6, null
  br i1 %.not, label %26, label %7

7:                                                ; preds = %3
  %8 = getelementptr inbounds nuw i8, ptr %5, i64 108
  %9 = load i32, ptr %8, align 4, !tbaa !20
  %.not22 = icmp eq i32 %9, 0
  br i1 %.not22, label %10, label %12

10:                                               ; preds = %7
  %11 = tail call i32 @ff_set_common_formats2(ptr noundef nonnull %0, ptr noundef %1, ptr noundef %2, ptr noundef nonnull %6) #10
  br label %26

12:                                               ; preds = %7
  %13 = load ptr, ptr %1, align 8, !tbaa !38
  %14 = tail call i32 @ff_formats_ref(ptr noundef nonnull %6, ptr noundef %13) #10
  %15 = icmp slt i32 %14, 0
  br i1 %15, label %26, label %16

16:                                               ; preds = %12
  %17 = tail call ptr @ff_make_format_list(ptr noundef nonnull @query_formats.unproc_pix_fmts) #10
  %.not23 = icmp eq ptr %17, null
  br i1 %.not23, label %26, label %18

18:                                               ; preds = %16
  %19 = load ptr, ptr %2, align 8, !tbaa !38
  %20 = tail call i32 @ff_formats_ref(ptr noundef nonnull %17, ptr noundef %19) #10
  %21 = icmp slt i32 %20, 0
  br i1 %21, label %26, label %22

22:                                               ; preds = %18
  %23 = getelementptr inbounds nuw i8, ptr %1, i64 8
  %24 = load ptr, ptr %23, align 8, !tbaa !38
  %25 = tail call i32 @ff_formats_ref(ptr noundef nonnull %17, ptr noundef %24) #10
  %. = tail call i32 @llvm.smin.i32(i32 %25, i32 0)
  br label %26

26:                                               ; preds = %22, %18, %16, %12, %3, %10
  %.0 = phi i32 [ %11, %10 ], [ -12, %3 ], [ %14, %12 ], [ -12, %16 ], [ %20, %18 ], [ %., %22 ]
  ret i32 %.0
}